target datalayout = "e-m:e-p270:32:32-p271:32:32-p272:64:64-i64:64-i128:128-f80:128-n8:16:32:64-S128"
target triple = "x86_64-pc-linux-gnu"

%struct.expert_field = type { i32, i32 }
%struct.ansi_a_shared_data_t = type { ptr, ptr, ptr, i8, i8, %struct._address, i32, %struct.e_in6_addr, i16, i8 }
%struct._address = type { i32, i32, ptr, ptr }
%struct.e_in6_addr = type { [16 x i8] }

@ei_ansi_a_extraneous_data = internal global %struct.expert_field zeroinitializer, align 4

; Function Attrs: null_pointer_is_valid sspstrong uwtable
define internal zeroext i8 @elem_downlink_re(ptr noundef %0, ptr noundef %1, ptr noundef %2, i32 noundef %3, i32 noundef %4, ptr noundef %5) #1 {
  %7 = alloca ptr, align 8
  %8 = alloca ptr, align 8
  %9 = alloca ptr, align 8
  %10 = alloca i32, align 4
  %11 = alloca i32, align 4
  %12 = alloca ptr, align 8
  %13 = alloca i32, align 4
  store ptr %0, ptr %7, align 8
  store ptr %1, ptr %8, align 8
  store ptr %2, ptr %9, align 8
  store i32 %3, ptr %10, align 4
  store i32 %4, ptr %11, align 4
  store ptr %5, ptr %12, align 8
  call void @llvm.lifetime.start.p0(i64 4, ptr %13) #8
  %14 = load i32, ptr %10, align 4
  store i32 %14, ptr %13, align 4
  %15 = load ptr, ptr %7, align 8
  %16 = load ptr, ptr %8, align 8
  %17 = load ptr, ptr %9, align 8
  %18 = load i32, ptr %10, align 4
  %19 = load i32, ptr %11, align 4
  %20 = load ptr, ptr %12, align 8
  %21 = getelementptr inbounds nuw %struct.ansi_a_shared_data_t, ptr %20, i32 0, i32 2
  %22 = load ptr, ptr %21, align 8
  %23 = call zeroext i8 @elem_downlink_re_aux(ptr noundef %15, ptr noundef %16, ptr noundef %17, i32 noundef %18, i32 noundef %19, ptr noundef %22)
  %24 = zext i8 %23 to i32
  %25 = load i32, ptr %13, align 4
  %26 = add i32 %25, %24
  store i32 %26, ptr %13, align 4
  %27 = load i32, ptr %11, align 4
  %28 = load i32, ptr %13, align 4
  %29 = load i32, ptr %10, align 4
  %30 = sub i32 %28, %29
  %31 = icmp ugt i32 %27, %30
  br i1 %31, label %32, label %50

32:                                               ; preds = %6
  %33 = load ptr, ptr %9, align 8
  %34 = load ptr, ptr %8, align 8
  %35 = load ptr, ptr %7, align 8
  %36 = load i32, ptr %13, align 4
  %37 = load i32, ptr %11, align 4
  %38 = load i32, ptr %13, align 4
  %39 = load i32, ptr %10, align 4
  %40 = sub i32 %38, %39
  %41 = sub i32 %37, %40
  %42 = call ptr @proto_tree_add_expert(ptr noundef %33, ptr noundef %34, ptr noundef @ei_ansi_a_extraneous_data, ptr noundef %35, i32 noundef %36, i32 noundef %41)
  %43 = load i32, ptr %11, align 4
  %44 = load i32, ptr %13, align 4
  %45 = load i32, ptr %10, align 4
  %46 = sub i32 %44, %45
  %47 = sub i32 %43, %46
  %48 = load i32, ptr %13, align 4
  %49 = add i32 %48, %47
  store i32 %49, ptr %13, align 4
  br label %50

50:                                               ; preds = %32, %6
  %51 = load i32, ptr %13, align 4
  %52 = load i32, ptr %10, align 4
  %53 = sub i32 %51, %52
  %54 = trunc i32 %53 to i8
  call void @llvm.lifetime.end.p0(i64 4, ptr %13) #8
  ret i8 %54
}