; Function Attrs: null_pointer_is_valid sspstrong uwtable
define internal zeroext i8 @elem_downlink_re(ptr noundef %0, ptr noundef %1, ptr noundef %2, i32 noundef %3, i32 noundef %4, ptr noundef readonly captures(none) %5) #1 {
  %7 = getelementptr inbounds nuw i8, ptr %5, i64 16
  %8 = load ptr, ptr %7, align 8
  %9 = tail call fastcc zeroext i8 @elem_downlink_re_aux(ptr noundef %0, ptr noundef %1, ptr noundef %2, i32 noundef %3, i32 noundef %4, ptr noundef %8)
  %10 = zext i8 %9 to i32
  %11 = add i32 %3, %10
  %12 = icmp ugt i32 %4, %10
  br i1 %12, label %13, label %17

13:                                               ; preds = %6
  %14 = sub nuw i32 %4, %10
  %15 = tail call ptr @proto_tree_add_expert(ptr noundef %2, ptr noundef %1, ptr noundef nonnull @ei_ansi_a_extraneous_data, ptr noundef %0, i32 noundef %11, i32 noundef %14)
  %16 = add i32 %4, %3
  br label %17

17:                                               ; preds = %13, %6
  %.0 = phi i32 [ %16, %13 ], [ %11, %6 ]
  %18 = sub i32 %.0, %3
  %19 = trunc i32 %18 to i8
  ret i8 %19
}